target datalayout = "e-m:e-p270:32:32-p271:32:32-p272:64:64-i64:64-i128:128-f80:128-n8:16:32:64-S128"
target triple = "x86_64-pc-linux-gnu"

; Function Attrs: nounwind uwtable
define internal void @SimpleHFilter16i_SSE2(ptr noundef %0, i32 noundef %1, i32 noundef %2) #0 {
  %4 = alloca ptr, align 8
  %5 = alloca i32, align 4
  %6 = alloca i32, align 4
  %7 = alloca i32, align 4
  store ptr %0, ptr %4, align 8, !tbaa !9
  store i32 %1, ptr %5, align 4, !tbaa !11
  store i32 %2, ptr %6, align 4, !tbaa !11
  call void @llvm.lifetime.start.p0(i64 4, ptr %7) #9
  store i32 3, ptr %7, align 4, !tbaa !11
  br label %8

8:                                                ; preds = %17, %3
  %9 = load i32, ptr %7, align 4, !tbaa !11
  %10 = icmp sgt i32 %9, 0
  br i1 %10, label %11, label %20

11:                                               ; preds = %8
  %12 = load ptr, ptr %4, align 8, !tbaa !9
  %13 = getelementptr inbounds i8, ptr %12, i64 4
  store ptr %13, ptr %4, align 8, !tbaa !9
  %14 = load ptr, ptr %4, align 8, !tbaa !9
  %15 = load i32, ptr %5, align 4, !tbaa !11
  %16 = load i32, ptr %6, align 4, !tbaa !11
  call void @SimpleHFilter16_SSE2(ptr noundef %14, i32 noundef %15, i32 noundef %16)
  br label %17

17:                                               ; preds = %11
  %18 = load i32, ptr %7, align 4, !tbaa !11
  %19 = add nsw i32 %18, -1
  store i32 %19, ptr %7, align 4, !tbaa !11
  br label %8, !llvm.loop !18

20:                                               ; preds = %8
  call void @llvm.lifetime.end.p0(i64 4, ptr %7) #9
  ret void
}