; Function Attrs: nofree norecurse nosync nounwind memory(argmem: readwrite) uwtable
define internal void @SimpleHFilter16i_SSE2(ptr noundef captures(none) %0, i32 noundef %1, i32 noundef %2) #3 {
  br label %4

4:                                                ; preds = %3, %4
  %.07 = phi i32 [ 3, %3 ], [ %6, %4 ]
  %.056 = phi ptr [ %0, %3 ], [ %5, %4 ]
  %5 = getelementptr inbounds nuw i8, ptr %.056, i64 4
  tail call void @SimpleHFilter16_SSE2(ptr noundef nonnull %5, i32 noundef %1, i32 noundef %2)
  %6 = add nsw i32 %.07, -1
  %7 = icmp ugt i32 %.07, 1
  br i1 %7, label %4, label %8, !llvm.loop !13

8:                                                ; preds = %4
  ret void
}